; Function Attrs: nounwind uwtable
define ptr @l_Lean_Widget_CodeWithInfos_mergePosMap___at_Lean_Widget_addDiffTags___spec__1(ptr noundef %0, ptr noundef %1, ptr noundef %2, ptr noundef %3, ptr noundef %4, ptr noundef %5, ptr noundef %6, ptr noundef %7) local_unnamed_addr #0 {
  %9 = ptrtoint ptr %1 to i64
  %10 = and i64 %9, 1
  %.not.i36 = icmp eq i64 %10, 0
  br i1 %.not.i36, label %14, label %11

11:                                               ; preds = %8
  %12 = lshr i64 %9, 1
  %13 = trunc i64 %12 to i32
  br label %lean_obj_tag.exit

14:                                               ; preds = %8
  %15 = getelementptr i8, ptr %1, i64 4
  %.val.i = load i32, ptr %15, align 4
  %16 = lshr i32 %.val.i, 24
  br label %lean_obj_tag.exit

lean_obj_tag.exit:                                ; preds = %11, %14
  %.0.i = phi i32 [ %13, %11 ], [ %16, %14 ]
  %17 = icmp eq i32 %.0.i, 0
  br i1 %17, label %18, label %70

18:                                               ; preds = %lean_obj_tag.exit
  %19 = ptrtoint ptr %6 to i64
  %20 = and i64 %19, 1
  %.not = icmp eq i64 %20, 0
  br i1 %.not, label %21, label %lean_dec.exit27

21:                                               ; preds = %18
  %22 = load i32, ptr %6, align 4, !tbaa !8
  %23 = icmp sgt i32 %22, 1
  br i1 %23, label %24, label %26, !prof !11

24:                                               ; preds = %21
  %25 = add nsw i32 %22, -1
  store i32 %25, ptr %6, align 4, !tbaa !8
  br label %lean_dec.exit27

26:                                               ; preds = %21
  %.not.i = icmp eq i32 %22, 0
  br i1 %.not.i, label %lean_dec.exit27, label %27

27:                                               ; preds = %26
  tail call void @lean_dec_ref_cold(ptr noundef nonnull %6) #7
  br label %lean_dec.exit27

lean_dec.exit27:                                  ; preds = %27, %26, %24, %18
  %28 = ptrtoint ptr %5 to i64
  %29 = and i64 %28, 1
  %.not37 = icmp eq i64 %29, 0
  br i1 %.not37, label %30, label %lean_dec.exit26

30:                                               ; preds = %lean_dec.exit27
  %31 = load i32, ptr %5, align 4, !tbaa !8
  %32 = icmp sgt i32 %31, 1
  br i1 %32, label %33, label %35, !prof !11

33:                                               ; preds = %30
  %34 = add nsw i32 %31, -1
  store i32 %34, ptr %5, align 4, !tbaa !8
  br label %lean_dec.exit26

35:                                               ; preds = %30
  %.not.i28 = icmp eq i32 %31, 0
  br i1 %.not.i28, label %lean_dec.exit26, label %36

36:                                               ; preds = %35
  tail call void @lean_dec_ref_cold(ptr noundef nonnull %5) #7
  br label %lean_dec.exit26

lean_dec.exit26:                                  ; preds = %36, %35, %33, %lean_dec.exit27
  %37 = ptrtoint ptr %4 to i64
  %38 = and i64 %37, 1
  %.not38 = icmp eq i64 %38, 0
  br i1 %.not38, label %39, label %lean_dec.exit25

39:                                               ; preds = %lean_dec.exit26
  %40 = load i32, ptr %4, align 4, !tbaa !8
  %41 = icmp sgt i32 %40, 1
  br i1 %41, label %42, label %44, !prof !11

42:                                               ; preds = %39
  %43 = add nsw i32 %40, -1
  store i32 %43, ptr %4, align 4, !tbaa !8
  br label %lean_dec.exit25

44:                                               ; preds = %39
  %.not.i30 = icmp eq i32 %40, 0
  br i1 %.not.i30, label %lean_dec.exit25, label %45

45:                                               ; preds = %44
  tail call void @lean_dec_ref_cold(ptr noundef nonnull %4) #7
  br label %lean_dec.exit25

lean_dec.exit25:                                  ; preds = %45, %44, %42, %lean_dec.exit26
  %46 = ptrtoint ptr %3 to i64
  %47 = and i64 %46, 1
  %.not39 = icmp eq i64 %47, 0
  br i1 %.not39, label %48, label %lean_dec.exit24

48:                                               ; preds = %lean_dec.exit25
  %49 = load i32, ptr %3, align 4, !tbaa !8
  %50 = icmp sgt i32 %49, 1
  br i1 %50, label %51, label %53, !prof !11

51:                                               ; preds = %48
  %52 = add nsw i32 %49, -1
  store i32 %52, ptr %3, align 4, !tbaa !8
  br label %lean_dec.exit24

53:                                               ; preds = %48
  %.not.i32 = icmp eq i32 %49, 0
  br i1 %.not.i32, label %lean_dec.exit24, label %54

54:                                               ; preds = %53
  tail call void @lean_dec_ref_cold(ptr noundef nonnull %3) #7
  br label %lean_dec.exit24

lean_dec.exit24:                                  ; preds = %54, %53, %51, %lean_dec.exit25
  %55 = ptrtoint ptr %0 to i64
  %56 = and i64 %55, 1
  %.not40 = icmp eq i64 %56, 0
  br i1 %.not40, label %57, label %lean_dec.exit

57:                                               ; preds = %lean_dec.exit24
  %58 = load i32, ptr %0, align 4, !tbaa !8
  %59 = icmp sgt i32 %58, 1
  br i1 %59, label %60, label %62, !prof !11

60:                                               ; preds = %57
  %61 = add nsw i32 %58, -1
  store i32 %61, ptr %0, align 4, !tbaa !8
  br label %lean_dec.exit

62:                                               ; preds = %57
  %.not.i34 = icmp eq i32 %58, 0
  br i1 %.not.i34, label %lean_dec.exit, label %63

63:                                               ; preds = %62
  tail call void @lean_dec_ref_cold(ptr noundef nonnull %0) #7
  br label %lean_dec.exit

lean_dec.exit:                                    ; preds = %63, %62, %60, %lean_dec.exit24
  tail call void @lean_inc_heartbeat() #7
  %64 = tail call noalias ptr @mi_malloc_small(i64 noundef 24) #7
  %65 = icmp eq ptr %64, null
  br i1 %65, label %66, label %lean_alloc_ctor.exit

66:                                               ; preds = %lean_dec.exit
  tail call void @lean_internal_panic_out_of_memory() #8
  unreachable

lean_alloc_ctor.exit:                             ; preds = %lean_dec.exit
  %67 = getelementptr inbounds nuw i8, ptr %64, i64 4
  store i32 1, ptr %64, align 4, !tbaa !8
  store i32 131096, ptr %67, align 4
  %68 = getelementptr inbounds nuw i8, ptr %64, i64 8
  store ptr %2, ptr %68, align 8, !tbaa !4
  %69 = getelementptr inbounds nuw i8, ptr %64, i64 16
  store ptr %7, ptr %69, align 8, !tbaa !4
  br label %81

70:                                               ; preds = %lean_obj_tag.exit
  tail call void @lean_inc_heartbeat() #7
  %71 = tail call noalias ptr @mi_malloc_small(i64 noundef 40) #7
  %72 = icmp eq ptr %71, null
  br i1 %72, label %73, label %lean_alloc_closure.exit

73:                                               ; preds = %70
  tail call void @lean_internal_panic_out_of_memory() #8
  unreachable

lean_alloc_closure.exit:                          ; preds = %70
  %74 = getelementptr inbounds nuw i8, ptr %71, i64 4
  store i32 1, ptr %71, align 4, !tbaa !8
  store i32 -184549336, ptr %74, align 4
  %75 = getelementptr inbounds nuw i8, ptr %71, i64 8
  store ptr @l_Lean_Widget_CodeWithInfos_mergePosMap___at_Lean_Widget_addDiffTags___spec__1___lambda__1___boxed, ptr %75, align 8, !tbaa !4
  %76 = getelementptr inbounds nuw i8, ptr %71, i64 16
  store i16 8, ptr %76, align 8, !tbaa !12
  %77 = getelementptr inbounds nuw i8, ptr %71, i64 18
  store i16 2, ptr %77, align 2, !tbaa !12
  %78 = getelementptr inbounds nuw i8, ptr %71, i64 24
  store ptr %1, ptr %78, align 8, !tbaa !4
  %79 = getelementptr inbounds nuw i8, ptr %71, i64 32
  store ptr %0, ptr %79, align 8, !tbaa !4
  %80 = tail call ptr @l_Lean_Widget_TaggedText_mapM___at_Lean_Widget_addDiffTags___spec__3(ptr noundef nonnull %71, ptr noundef %2, ptr noundef %3, ptr noundef %4, ptr noundef %5, ptr noundef %6, ptr noundef %7)
  br label %81

81:                                               ; preds = %lean_alloc_closure.exit, %lean_alloc_ctor.exit
  %.0 = phi ptr [ %64, %lean_alloc_ctor.exit ], [ %80, %lean_alloc_closure.exit ]
  ret ptr %.0
}